(dp0
S'struct[name]'
p1
c__builtin__
set
p2
((lp3
S'object'
p4
atp5
Rp6
sS'str[start,'
p7
g2
((lp8
tp9
Rp10
sS'skip'
p11
g2
((lp12
tp13
Rp14
sS'untrust'
p15
g2
((lp16
tp17
Rp18
sS'caller_locations'
p19
g2
((lp20
S'array'
p21
atp22
Rp23
sS'month'
p24
g2
((lp25
S'fixnum'
p26
atp27
Rp28
sS'all_symbols'
p29
g2
((lp30
tp31
Rp32
sS'untrusted?'
p33
g2
((lp34
S'true'
p35
atp36
Rp37
sS'sleep'
p38
g2
((lp39
S'fixnum'
p40
aS'number'
p41
atp42
Rp43
sS'acosh'
p44
g2
((lp45
S'float'
p46
atp47
Rp48
sS'private_constant'
p49
g2
((lp50
S'private_instance_methods(include_super=true)'
p51
atp52
Rp53
sS'to_write_io'
p54
g2
((lp55
S'io'
p56
atp57
Rp58
sS'gm'
p59
g2
((lp60
tp61
Rp62
sS'compact!'
p63
g2
((lp64
tp65
Rp66
sS'aliases'
p67
g2
((lp68
S'{"alias1" => "orig1", "alias2" => "orig2", ...}'
p69
atp70
Rp71
sS'compact'
p72
g2
((lp73
tp74
Rp75
sS'extend_object'
p76
g2
((lp77
g4
atp78
Rp79
sS'block_given?'
p80
g2
((lp81
S'true'
p82
atp83
Rp84
sS'zone'
p85
g2
((lp86
S'string'
p87
atp88
Rp89
sS'umask'
p90
g2
((lp91
S'integer'
p92
atp93
Rp94
sS'send'
p95
g2
((lp96
g4
atp97
Rp98
sS'world_readable?'
p99
g2
((lp100
S'fixnum'
p101
atp102
Rp103
sS'ftype'
p104
g2
((lp105
S'string'
p106
atp107
Rp108
sS'exit!'
p109
g2
((lp110
S'fail'
p111
atp112
Rp113
sS'rstrip'
p114
g2
((lp115
tp116
Rp117
sS'include'
p118
g2
((lp119
S'self'
p120
atp121
Rp122
sS'world_writable?'
p123
g2
((lp124
S'fixnum'
p125
atp126
Rp127
sS'inject'
p128
g2
((lp129
g4
atp130
Rp131
sS'string'
p132
g2
((lp133
S'fixnum'
p134
aS'true'
p135
aS'string'
p136
aS'<'
p137
atp138
Rp139
sS'private_method_defined?'
p140
g2
((lp141
S'true'
p142
atp143
Rp144
sS'singleton_method_added'
p145
g2
((lp146
S'singleton_method_removed(symbol)'
p147
atp148
Rp149
sS'trace_var'
p150
g2
((lp151
S'nil'
p152
atp153
Rp154
sS'asctime'
p155
g2
((lp156
S'string'
p157
atp158
Rp159
sS'public_method_defined?'
p160
g2
((lp161
S'true'
p162
atp163
Rp164
sS'nesting'
p165
g2
((lp166
S'array'
p167
atp168
Rp169
sS'entries'
p170
g2
((lp171
S'array'
p172
atp173
Rp174
sS'max_by'
p175
g2
((lp176
g4
aS'enumerator'
p177
atp178
Rp179
sS'utime'
p180
g2
((lp181
S'integer'
p182
atp183
Rp184
sS'groups'
p185
g2
((lp186
S'array'
p187
atp188
Rp189
sS'lchmod'
p190
g2
((lp191
S'integer'
p192
atp193
Rp194
sS'method_added'
p195
g2
((lp196
S'method_removed(method_name)'
p197
atp198
Rp199
sS'internal_encoding'
p200
g2
((lp201
S'encoding'
p202
atp203
Rp204
sS'ascii_compatible?'
p205
g2
((lp206
S'true'
p207
atp208
Rp209
sS'id2name'
p210
g2
((lp211
S'string'
p212
atp213
Rp214
sS'process::sys.geteid'
p215
g2
((lp216
S'fixnum'
p217
atp218
Rp219
sS'p'
p220
g2
((lp221
g4
aS'nil'
p222
aS'[obj, ...]'
p223
atp224
Rp225
sS'realdirpath'
p226
g2
((lp227
S'real_pathname'
p228
atp229
Rp230
sS'tty?'
p231
g2
((lp232
S'true'
p233
atp234
Rp235
sS'div'
p236
g2
((lp237
S'integer'
p238
atp239
Rp240
sS'round'
p241
g2
((lp242
S'integer'
p243
atp244
Rp245
sS'cmp'
p246
g2
((lp247
S'true'
p248
atp249
Rp250
sS'try_convert'
p251
g2
((lp252
S're'
p253
atp254
Rp255
sS'equal?'
p256
g2
((lp257
S'true'
p258
atp259
Rp260
sS'mtch'
p261
g2
((lp262
S'true'
p263
atp264
Rp265
sS'malloc_allocated_size'
p266
g2
((lp267
S'integer'
p268
atp269
Rp270
sS'set_encoding'
p271
g2
((lp272
tp273
Rp274
sS'setproctitle'
p275
g2
((lp276
S'string'
p277
atp278
Rp279
sS'process::sys.getuid'
p280
g2
((lp281
S'fixnum'
p282
atp283
Rp284
sS'lstrip'
p285
g2
((lp286
tp287
Rp288
sS'expand_path'
p289
g2
((lp290
S'abs_file_name'
p291
atp292
Rp293
sS'sync'
p294
g2
((lp295
S'boolean'
p296
aS'true'
p297
atp298
Rp299
sS'chomp'
p300
g2
((lp301
S'$_'
p302
atp303
Rp304
sS'cosh'
p305
g2
((lp306
S'float'
p307
atp308
Rp309
sS'pass'
p310
g2
((lp311
S'nil'
p312
atp313
Rp314
sS'rectangular'
p315
g2
((lp316
S'array'
p317
atp318
Rp319
sS'locked?'
p320
g2
((lp321
S'true'
p322
atp323
Rp324
sS'index'
p325
g2
((lp326
S'integer'
p327
aS'enumerator'
p328
aS'fixnum'
p329
aS'key'
p330
atp331
Rp332
sS'chardev?'
p333
g2
((lp334
S'true'
p335
atp336
Rp337
sS'sub'
p338
g2
((lp339
S'$_'
p340
atp341
Rp342
sS'included_modules'
p343
g2
((lp344
S'array'
p345
atp346
Rp347
sS'squeeze'
p348
g2
((lp349
tp350
Rp351
sS'symlink?'
p352
g2
((lp353
S'true'
p354
atp355
Rp356
sS'to_proc'
p357
g2
((lp358
S'prc'
p359
atp360
Rp361
sS'current'
p362
g2
((lp363
tp364
Rp365
sS'-big'
p366
g2
((lp367
S'integer'
p368
atp369
Rp370
sS'abs'
p371
g2
((lp372
S'real'
p373
aS'integer'
p374
atp375
Rp376
sS'new'
p377
g2
((lp378
S'rng'
p379
aS'system_call_error_subclass'
p380
aS'no_method_error'
p381
aS'signal_exception'
p382
aS')'
p383
aS'try_convert(obj)'
p384
aS'max=(number)'
p385
ag4
aS'name_error'
p386
aS'system_exit'
p387
aS'new(array)'
p388
aS'new(obj, method = :each, *args)'
p389
aS'structclass'
p390
aS'prng'
p391
aS'mod'
p392
atp393
Rp394
sS'one?'
p395
g2
((lp396
S'true'
p397
atp398
Rp399
sS'public'
p400
g2
((lp401
S'self'
p402
atp403
Rp404
sS'end_with?'
p405
g2
((lp406
S'true'
p407
atp408
Rp409
sS'hash'
p410
g2
((lp411
S'integer'
p412
aS'true'
p413
aS'fixnum'
p414
aS'hash'
p415
atp416
Rp417
sS'with_object'
p418
g2
((lp419
S'with_object(obj)'
p420
atp421
Rp422
sS'setpgid'
p423
g2
((lp424
S'0'
p425
atp426
Rp427
sS'verify_internal_consistency'
p428
g2
((lp429
S'nil'
p430
atp431
Rp432
sS'__send__'
p433
g2
((lp434
g4
atp435
Rp436
sS'getutc'
p437
g2
((lp438
tp439
Rp440
sS'instance_variable_get'
p441
g2
((lp442
tp443
Rp444
sS'sinh'
p445
g2
((lp446
S'float'
p447
atp448
Rp449
sS'path'
p450
g2
((lp451
S'string'
p452
aS'filename'
p453
atp454
Rp455
sS'class_eval'
p456
g2
((lp457
g4
atp458
Rp459
sS'getsid'
p460
g2
((lp461
S'integer'
p462
atp463
Rp464
sS'wait'
p465
g2
((lp466
S'cont[args, ...]'
p467
aS'fixnum'
p468
atp469
Rp470
sS'signame'
p471
g2
((lp472
S'string'
p473
atp474
Rp475
sS'pipe?'
p476
g2
((lp477
S'true'
p478
atp479
Rp480
sS'structclass[value,'
p481
g2
((lp482
g4
atp483
Rp484
sS'shift'
p485
g2
((lp486
S'array'
p487
ag4
aS'push(object)'
p488
atp489
Rp490
sS'popen'
p491
g2
((lp492
g4
atp493
Rp494
sS'tainted?'
p495
g2
((lp496
S'true'
p497
atp498
Rp499
sS'.nil?'
p500
g2
((lp501
S'false'
p502
atp503
Rp504
sS'each_cons'
p505
g2
((lp506
S'enumerator'
p507
aS'nil'
p508
atp509
Rp510
sS'upcase'
p511
g2
((lp512
tp513
Rp514
sS'nan?'
p515
g2
((lp516
S'true'
p517
atp518
Rp519
sS'permutation'
p520
g2
((lp521
S'enumerator'
p522
atp523
Rp524
sS'~'
p525
g2
((lp526
S'integer'
p527
atp528
Rp529
sS'options'
p530
g2
((lp531
S'fixnum'
p532
atp533
Rp534
sS'to_ary'
p535
g2
((lp536
tp537
Rp538
sS'spawn'
p539
g2
((lp540
S'pid'
p541
atp542
Rp543
sS'shuffle'
p544
g2
((lp545
tp546
Rp547
sS'members'
p548
g2
((lp549
S'array'
p550
atp551
Rp552
sS'instance_variable_set'
p553
g2
((lp554
tp555
Rp556
sS'cbrt'
p557
g2
((lp558
S'float'
p559
atp560
Rp561
sS'has_key?'
p562
g2
((lp563
S'true'
p564
atp565
Rp566
sS'class_variable_get'
p567
g2
((lp568
g4
atp569
Rp570
sS'private'
p571
g2
((lp572
S'self'
p573
atp574
Rp575
sS'replace'
p576
g2
((lp577
tp578
Rp579
sS'repeated_combination'
p580
g2
((lp581
S'enumerator'
p582
atp583
Rp584
sS'gsub'
p585
g2
((lp586
S'$_'
p587
aS'enumerator'
p588
atp589
Rp590
sS'divmod'
p591
g2
((lp592
S'array'
p593
atp594
Rp595
sS'str[range]'
p596
g2
((lp597
S'str[regexp] = new_str'
p598
atp599
Rp600
sS'printf'
p601
g2
((lp602
S'nil'
p603
atp604
Rp605
sS'uniq'
p606
g2
((lp607
tp608
Rp609
sS'select'
p610
g2
((lp611
S'[, write_array'
p612
aS'hash'
p613
aS'array'
p614
aS'enumerator'
p615
atp616
Rp617
sS'frexp'
p618
g2
((lp619
S'[fraction, exponent]'
p620
atp621
Rp622
sS'zip'
p623
g2
((lp624
S'array_of_array'
p625
aS'nil'
p626
atp627
Rp628
sS'getpriority'
p629
g2
((lp630
S'fixnum'
p631
atp632
Rp633
sS'rindex'
p634
g2
((lp635
g327
aS'enumerator'
p636
aS'fixnum'
p637
atp638
Rp639
sS'pred'
p640
g2
((lp641
tp642
Rp643
sS'hsh[key]'
p644
g2
((lp645
S'value'
p646
atp647
Rp648
sS'unshift'
p649
g2
((lp650
tp651
Rp652
sS'next'
p653
g2
((lp654
S'integer'
p655
aS'object'
p656
atp657
Rp658
sS'chr'
p659
g2
((lp660
S'string'
p661
atp662
Rp663
sS'env[name]'
p664
g2
((lp665
S'assoc(name)'
p666
aS'value'
p667
atp668
Rp669
sS'call'
p670
g2
((lp671
S'dir[ string [, string ...] ]'
p672
ag4
atp673
Rp674
sS'quo'
p675
g2
((lp676
S'rat'
p677
aS'numeric'
p678
aS'flo'
p679
atp680
Rp681
sS'casecmp'
p682
g2
((lp683
S'-1, 0, +1'
p684
atp685
Rp686
sS'value?'
p687
g2
((lp688
S'true'
p689
atp690
Rp691
sS'uniq!'
p692
g2
((lp693
tp694
Rp695
sS'fdatasync'
p696
g2
((lp697
S'0'
p698
atp699
Rp700
sS'ppid'
p701
g2
((lp702
S'fixnum'
p703
atp704
Rp705
sS'tell'
p706
g2
((lp707
S'integer'
p708
atp709
Rp710
sS'has_value?'
p711
g2
((lp712
S'true'
p713
atp714
Rp715
sS'sort'
p716
g2
((lp717
S'array'
p718
atp719
Rp720
sS'isatty'
p721
g2
((lp722
S'true'
p723
atp724
Rp725
sS'-float'
p726
g2
((lp727
tp728
Rp729
sS'binding'
p730
g2
((lp731
S'binding'
p732
atp733
Rp734
sS'minmax_by'
p735
g2
((lp736
S'[min, max]'
p737
aS'enumerator'
p738
atp739
Rp740
sS'stop?'
p741
g2
((lp742
S'true'
p743
atp744
Rp745
sS'warn'
p746
g2
((lp747
S'nil'
p748
atp749
Rp750
sS'slice!'
p751
g2
((lp752
g4
aS'fixnum'
p753
atp754
Rp755
sS'escape'
p756
g2
((lp757
S'string'
p758
atp759
Rp760
sS'struct[index]'
p761
g2
((lp762
S'object'
p763
atp764
Rp765
sS'gmt?'
p766
g2
((lp767
S'true'
p768
atp769
Rp770
sS'unpack'
p771
g2
((lp772
S'array'
p773
atp774
Rp775
sS'remove_method'
p776
g2
((lp777
S'self'
p778
atp779
Rp780
sS'chdir'
p781
g2
((lp782
S'0'
p783
aS'object'
p784
atp785
Rp786
sS'join'
p787
g2
((lp788
S'path'
p789
aS'string'
p790
aS'thr'
p791
atp792
Rp793
sS'hour'
p794
g2
((lp795
S'fixnum'
p796
atp797
Rp798
sS'strip!'
p799
g2
((lp800
tp801
Rp802
sS'process::gid.rid'
p803
g2
((lp804
S'fixnum'
p805
atp806
Rp807
sS'select!'
p808
g2
((lp809
S'enumerator'
p810
atp811
Rp812
sS'oct'
p813
g2
((lp814
S'integer'
p815
atp816
Rp817
sS'force_encoding'
p818
g2
((lp819
tp820
Rp821
sS'erf'
p822
g2
((lp823
S'float'
p824
atp825
Rp826
sS'mon'
p827
g2
((lp828
S'fixnum'
p829
atp830
Rp831
sS'values'
p832
g2
((lp833
S'array'
p834
atp835
Rp836
sS'fnmatch'
p837
g2
((lp838
S'(true'
p839
atp840
Rp841
sS'autoload?'
p842
g2
((lp843
S'string'
p844
atp845
Rp846
sS'localtime'
p847
g2
((lp848
tp849
Rp850
sS'fetch'
p851
g2
((lp852
g4
aS'value'
p853
atp854
Rp855
sS'tap'
p856
g2
((lp857
tp858
Rp859
sS'tv_usec'
p860
g2
((lp861
g327
atp862
Rp863
sS'scan'
p864
g2
((lp865
S'array'
p866
atp867
Rp868
sS'none?'
p869
g2
((lp870
S'true'
p871
atp872
Rp873
sS'lock'
p874
g2
((lp875
S'self'
p876
atp877
Rp878
sS'attr_accessor'
p879
g2
((lp880
S'nil'
p881
atp882
Rp883
sS'errno'
p884
g2
((lp885
S'fixnum'
p886
atp887
Rp888
sS'str[index]'
p889
g2
((lp890
tp891
Rp892
sS'sample'
p893
g2
((lp894
g4
atp895
Rp896
sS'coerce'
p897
g2
((lp898
S'array'
p899
atp900
Rp901
sS'refine'
p902
g2
((lp903
tp904
Rp905
sS'local_variables'
p906
g2
((lp907
S'array'
p908
atp909
Rp910
sS'tan'
p911
g2
((lp912
S'float'
p913
atp914
Rp915
sS'thread_variable_get'
p916
g2
((lp917
g4
atp918
Rp919
sS'chop'
p920
g2
((lp921
S'$_'
p922
atp923
Rp924
sS'chroot'
p925
g2
((lp926
S'0'
p927
atp928
Rp929
sS'end'
p930
g2
((lp931
S'integer'
p932
ag4
atp933
Rp934
sS'gcd'
p935
g2
((lp936
tp937
Rp938
sS'gid='
p939
g2
((lp940
S'fixnum'
p941
atp942
Rp943
sS'wday'
p944
g2
((lp945
S'fixnum'
p946
atp947
Rp948
sS'atanh'
p949
g2
((lp950
S'float'
p951
atp952
Rp953
sS'exit_value'
p954
g2
((lp955
g4
atp956
Rp957
sS'abort_on_exception'
p958
g2
((lp959
S'true'
p960
atp961
Rp962
sS'write'
p963
g2
((lp964
S'integer'
p965
aS'write(name, string, [offset], open_args )   => fixnum'
p966
atp967
Rp968
sS'fix[n]'
p969
g2
((lp970
S'0, 1'
p971
atp972
Rp973
sS'instance_variable_defined?'
p974
g2
((lp975
S'true'
p976
atp977
Rp978
sS'foreach'
p979
g2
((lp980
S'enumerator'
p981
aS'nil'
p982
atp983
Rp984
sS'reject'
p985
g2
((lp986
S'hash'
p987
aS'array'
p988
aS'enumerator'
p989
atp990
Rp991
sS'sin'
p992
g2
((lp993
S'float'
p994
atp995
Rp996
sS'to_c'
p997
g2
((lp998
S'(0+0i)'
p999
aS'self'
p1000
aS'complex'
p1001
atp1002
Rp1003
sS'upto'
p1004
g2
((lp1005
S'self'
p1006
aS'enumerator'
p1007
atp1008
Rp1009
sS'map'
p1010
g2
((lp1011
S'array'
p1012
aS'enumerator'
p1013
atp1014
Rp1015
sS'product'
p1016
g2
((lp1017
tp1018
Rp1019
sS'mtch[range]'
p1020
g2
((lp1021
S'array'
p1022
atp1023
Rp1024
sS'max'
p1025
g2
((lp1026
g4
atp1027
Rp1028
sS'asin'
p1029
g2
((lp1030
S'float'
p1031
atp1032
Rp1033
sS'each_char'
p1034
g2
((lp1035
S'ios'
p1036
aS'enumerator'
p1037
atp1038
Rp1039
sS'enabled?'
p1040
g2
((lp1041
S'true'
p1042
atp1043
Rp1044
sS'enq'
p1045
g2
((lp1046
S'<'
p1047
atp1048
Rp1049
sS'succ'
p1050
g2
((lp1051
S'integer'
p1052
atp1053
Rp1054
sS'disable'
p1055
g2
((lp1056
g4
aS'true'
p1057
atp1058
Rp1059
sS'owned?'
p1060
g2
((lp1061
S'true'
p1062
atp1063
Rp1064
sS'scrub!'
p1065
g2
((lp1066
tp1067
Rp1068
sS'unlink'
p1069
g2
((lp1070
S'0'
p1071
aS'integer'
p1072
atp1073
Rp1074
sS'capitalize'
p1075
g2
((lp1076
tp1077
Rp1078
sS'constants'
p1079
g2
((lp1080
S'array'
p1081
atp1082
Rp1083
sS'shuffle!'
p1084
g2
((lp1085
tp1086
Rp1087
sS'reverse_each'
p1088
g2
((lp1089
S'enum'
p1090
aS'enumerator'
p1091
atp1092
Rp1093
sS'map!'
p1094
g2
((lp1095
S'enumerator'
p1096
atp1097
Rp1098
sS'mday'
p1099
g2
((lp1100
S'fixnum'
p1101
atp1102
Rp1103
sS'default_external'
p1104
g2
((lp1105
S'default_internal'
p1106
aS'enc'
p1107
atp1108
Rp1109
sS'bind'
p1110
g2
((lp1111
S'method'
p1112
atp1113
Rp1114
sS'lines'
p1115
g2
((lp1116
S'array'
p1117
atp1118
Rp1119
sS'atan2'
p1120
g2
((lp1121
S'float'
p1122
atp1123
Rp1124
sS'setpgrp'
p1125
g2
((lp1126
S'0'
p1127
atp1128
Rp1129
sS'gamma'
p1130
g2
((lp1131
S'float'
p1132
atp1133
Rp1134
sS'getgm'
p1135
g2
((lp1136
tp1137
Rp1138
sS'chop!'
p1139
g2
((lp1140
tp1141
Rp1142
sS'lambda'
p1143
g2
((lp1144
S'proc'
p1145
atp1146
Rp1147
sS'module_exec'
p1148
g2
((lp1149
g4
atp1150
Rp1151
sS'exclusive'
p1152
g2
((lp1153
S'exit'
p1154
atp1155
Rp1156
sS'set_trace_func'
p1157
g2
((lp1158
S'proc'
p1159
aS'nil'
p1160
atp1161
Rp1162
sS'basename'
p1163
g2
((lp1164
S'base_name'
p1165
atp1166
Rp1167
sS'signo'
p1168
g2
((lp1169
S'num'
p1170
atp1171
Rp1172
sS'autoload'
p1173
g2
((lp1174
S'nil'
p1175
atp1176
Rp1177
sS'sort_by!'
p1178
g2
((lp1179
S'enumerator'
p1180
atp1181
Rp1182
sS'process::exit'
p1183
g2
((lp1184
S'exit!(status=false)'
p1185
atp1186
Rp1187
sS'enclose'
p1188
g2
((lp1189
S'thgrp'
p1190
atp1191
Rp1192
sS'minmax'
p1193
g2
((lp1194
S'[min, max]'
p1195
atp1196
Rp1197
sS'wednesday?'
p1198
g2
((lp1199
S'true'
p1200
atp1201
Rp1202
sS'hash['
p1203
g2
((lp1204
tp1205
Rp1206
sS'group'
p1207
g2
((lp1208
S'thgrp'
p1209
atp1210
Rp1211
sS'external_encoding'
p1212
g2
((lp1213
S'encoding'
p1214
atp1215
Rp1216
sS'between?'
p1217
g2
((lp1218
S'true'
p1219
atp1220
Rp1221
sS'closed?'
p1222
g2
((lp1223
S'true'
p1224
atp1225
Rp1226
sS'const_get'
p1227
g2
((lp1228
g4
atp1229
Rp1230
sS'fix'
p1231
g2
((lp1232
S'real'
p1233
aS'&'
p1234
aS'numeric_result'
p1235
aS'integer_result'
p1236
aS'integer'
p1237
aS'true'
p1238
aS'<'
p1239
atp1240
Rp1241
sS'gmtoff'
p1242
g2
((lp1243
S'fixnum'
p1244
atp1245
Rp1246
sS'sysopen'
p1247
g2
((lp1248
S'fixnum'
p1249
atp1250
Rp1251
sS'close_on_exec?'
p1252
g2
((lp1253
S'true'
p1254
atp1255
Rp1256
sS'close_write'
p1257
g2
((lp1258
S'nil'
p1259
atp1260
Rp1261
sS'main'
p1262
g2
((lp1263
tp1264
Rp1265
sS'require_relative'
p1266
g2
((lp1267
S'true'
p1268
atp1269
Rp1270
sS'default_proc'
p1271
g2
((lp1272
S'delete(key)'
p1273
aS'object'
p1274
atp1275
Rp1276
sS'combination'
p1277
g2
((lp1278
S'enumerator'
p1279
atp1280
Rp1281
sS'class_variable_defined?'
p1282
g2
((lp1283
S'true'
p1284
atp1285
Rp1286
sS'rewind'
p1287
g2
((lp1288
S'0'
p1289
aS'e'
p1290
atp1291
Rp1292
sS'finite?'
p1293
g2
((lp1294
S'true'
p1295
atp1296
Rp1297
sS'sprintf'
p1298
g2
((lp1299
S'string'
p1300
atp1301
Rp1302
sS'rpartition'
p1303
g2
((lp1304
S'[head, sep, tail]'
p1305
aS'[head, match, tail]'
p1306
atp1307
Rp1308
sS'local_variable_get'
p1309
g2
((lp1310
g4
atp1311
Rp1312
sS'wakeup'
p1313
g2
((lp1314
S'thr'
p1315
atp1316
Rp1317
sS'detach'
p1318
g2
((lp1319
S'thread'
p1320
atp1321
Rp1322
sS'day'
p1323
g2
((lp1324
S'fixnum'
p1325
atp1326
Rp1327
sS'blockdev?'
p1328
g2
((lp1329
S'true'
p1330
atp1331
Rp1332
sS'public_constant'
p1333
g2
((lp1334
S'public_instance_method(symbol)'
p1335
atp1336
Rp1337
sS'ary[index]'
p1338
g2
((lp1339
g4
atp1340
Rp1341
sS'name'
p1342
g2
((lp1343
S'symbol'
p1344
aS'string'
p1345
atp1346
Rp1347
sS'reopen'
p1348
g2
((lp1349
S'ios'
p1350
atp1351
Rp1352
sS'drop'
p1353
g2
((lp1354
S'array'
p1355
atp1356
Rp1357
sS'compare_by_identity'
p1358
g2
((lp1359
tp1360
Rp1361
sS'merge'
p1362
g2
((lp1363
tp1364
Rp1365
sS'magnitude'
p1366
g2
((lp1367
S'real'
p1368
aS'integer'
p1369
atp1370
Rp1371
sS'trap'
p1372
g2
((lp1373
g4
atp1374
Rp1375
sS'each'
p1376
g2
((lp1377
S'rng'
p1378
aS'ios'
p1379
ag4
aS'enumerator'
p1380
aS'enum'
p1381
atp1382
Rp1383
sS'all?'
p1384
g2
((lp1385
S'true'
p1386
atp1387
Rp1388
sS'backtrace_locations'
p1389
g2
((lp1390
S'array'
p1391
atp1392
Rp1393
sS'clock_gettime'
p1394
g2
((lp1395
S'number'
p1396
atp1397
Rp1398
sS'respond_to_missing?'
p1399
g2
((lp1400
S'true'
p1401
atp1402
Rp1403
sS'list'
p1404
g2
((lp1405
S'array'
p1406
aS'hash'
p1407
aS'[enc1, enc2, ...]'
p1408
atp1409
Rp1410
sS'absolute_path'
p1411
g2
((lp1412
S'abs_file_name'
p1413
atp1414
Rp1415
sS'maxgroups'
p1416
g2
((lp1417
S'fixnum'
p1418
atp1419
Rp1420
sS'reduce'
p1421
g2
((lp1422
g4
atp1423
Rp1424
sS'local_variable_set'
p1425
g2
((lp1426
g4
atp1427
Rp1428
sS'monday?'
p1429
g2
((lp1430
S'true'
p1431
atp1432
Rp1433
sS'unlock'
p1434
g2
((lp1435
S'self'
p1436
atp1437
Rp1438
sS'str[fixnum]'
p1439
g2
((lp1440
S'str[fixnum, fixnum] = new_str'
p1441
atp1442
Rp1443
sS'subsec'
p1444
g2
((lp1445
S'number'
p1446
atp1447
Rp1448
sS'copy_stream'
p1449
g2
((lp1450
S'for_fd(fd, mode [, opt])'
p1451
aS'copy_stream(src, dst, copy_length)'
p1452
atp1453
Rp1454
sS'flock'
p1455
g2
((lp1456
S'0'
p1457
atp1458
Rp1459
sS'dirname'
p1460
g2
((lp1461
S'dir_name'
p1462
atp1463
Rp1464
sS'array'
p1465
g2
((lp1466
S'<'
p1467
aS'array'
p1468
aS'bool'
p1469
aS'string'
p1470
aS'&'
p1471
atp1472
Rp1473
sS'atan'
p1474
g2
((lp1475
S'float'
p1476
atp1477
Rp1478
sS'named_captures'
p1479
g2
((lp1480
S'hash'
p1481
atp1482
Rp1483
sS'setgid?'
p1484
g2
((lp1485
S'true'
p1486
atp1487
Rp1488
sS'usec'
p1489
g2
((lp1490
g327
atp1491
Rp1492
sS'kind_of?'
p1493
g2
((lp1494
S'true'
p1495
atp1496
Rp1497
sS'class_exec'
p1498
g2
((lp1499
g4
atp1500
Rp1501
sS'setsid'
p1502
g2
((lp1503
S'fixnum'
p1504
atp1505
Rp1506
sS'ary[range]'
p1507
g2
((lp1508
g4
atp1509
Rp1510
sS'lineno'
p1511
g2
((lp1512
S'integer'
p1513
atp1514
Rp1515
sS'rational'
p1516
g2
((lp1517
S'<'
p1518
aS'numeric'
p1519
atp1520
Rp1521
sS'public_instance_methods'
p1522
g2
((lp1523
S'array'
p1524
atp1525
Rp1526
sS'print'
p1527
g2
((lp1528
S'nil'
p1529
atp1530
Rp1531
sS'clone'
p1532
g2
((lp1533
S'method'
p1534
atp1535
Rp1536
sS'read_nonblock'
p1537
g2
((lp1538
S'string'
p1539
aS'outbuf'
p1540
atp1541
Rp1542
sS'last_match'
p1543
g2
((lp1544
S'matchdata'
p1545
ag790
atp1546
Rp1547
sS'str[match_str]'
p1548
g2
((lp1549
tp1550
Rp1551
sS'log2'
p1552
g2
((lp1553
S'float'
p1554
atp1555
Rp1556
sS'resume'
p1557
g2
((lp1558
g4
atp1559
Rp1560
sS'args'
p1561
g2
((lp1562
g4
atp1563
Rp1564
sS'argv'
p1565
g2
((lp1566
S'argv'
p1567
atp1568
Rp1569
sS'each_pair'
p1570
g2
((lp1571
S'enumerator'
p1572
aS'hash'
p1573
atp1574
Rp1575
sS'readable_real?'
p1576
g2
((lp1577
S'true'
p1578
atp1579
Rp1580
sS'reason'
p1581
g2
((lp1582
S'symbol'
p1583
atp1584
Rp1585
sS'each_value'
p1586
g2
((lp1587
S'enumerator'
p1588
aS'hash'
p1589
atp1590
Rp1591
sS'even?'
p1592
g2
((lp1593
S'true'
p1594
atp1595
Rp1596
sS'ord'
p1597
g2
((lp1598
S'integer'
p1599
aS'self'
p1600
atp1601
Rp1602
sS'remainder'
p1603
g2
((lp1604
S'real'
p1605
aS'number'
p1606
atp1607
Rp1608
sS'rect'
p1609
g2
((lp1610
S'array'
p1611
atp1612
Rp1613
sS'encode'
p1614
g2
((lp1615
tp1616
Rp1617
sS'sticky?'
p1618
g2
((lp1619
S'true'
p1620
atp1621
Rp1622
sS'str[regexp]'
p1623
g2
((lp1624
tp1625
Rp1626
sS'module_function'
p1627
g2
((lp1628
S'self'
p1629
atp1630
Rp1631
sS'ioctl'
p1632
g2
((lp1633
S'integer'
p1634
atp1635
Rp1636
sS'times'
p1637
g2
((lp1638
S'self'
p1639
aS'processtms'
p1640
aS'enumerator'
p1641
atp1642
Rp1643
sS'length'
p1644
g2
((lp1645
g327
aS'fixnum'
p1646
atp1647
Rp1648
sS'erfc'
p1649
g2
((lp1650
S'float'
p1651
atp1652
Rp1653
sS'each_line'
p1654
g2
((lp1655
S'ios'
p1656
aS'enumerator'
p1657
atp1658
Rp1659
sS'process::sys.getgid'
p1660
g2
((lp1661
S'fixnum'
p1662
atp1663
Rp1664
sS'callcc'
p1665
g2
((lp1666
g4
atp1667
Rp1668
sS'first'
p1669
g2
((lp1670
S'array'
p1671
ag4
atp1672
Rp1673
sS'feed'
p1674
g2
((lp1675
S'nil'
p1676
atp1677
Rp1678
sS'rand'
p1679
g2
((lp1680
S'float'
p1681
aS'number'
p1682
atp1683
Rp1684
sS'encoding'
p1685
g2
((lp1686
S'encoding'
p1687
atp1688
Rp1689
sS'number'
p1690
g2
((lp1691
S'<'
p1692
atp1693
Rp1694
sS'singleton_method_undefined'
p1695
g2
((lp1696
S'big % other'
p1697
atp1698
Rp1699
sS'reverse!'
p1700
g2
((lp1701
tp1702
Rp1703
sS'ldexp'
p1704
g2
((lp1705
S'float'
p1706
atp1707
Rp1708
sS'codepoints'
p1709
g2
((lp1710
S'enumerator'
p1711
aS'array'
p1712
aS'ios'
p1713
atp1714
Rp1715
sS'tv_nsec'
p1716
g2
((lp1717
g327
atp1718
Rp1719
sS'owner'
p1720
g2
((lp1721
S'class_or_module'
p1722
atp1723
Rp1724
sS'eql?'
p1725
g2
((lp1726
S'true'
p1727
aS'friday?'
p1728
atp1729
Rp1730
sS'message'
p1731
g2
((lp1732
S'string'
p1733
atp1734
Rp1735
sS'ljust'
p1736
g2
((lp1737
tp1738
Rp1739
sS'open'
p1740
g2
((lp1741
S'object'
p1742
aS'io'
p1743
atp1744
Rp1745
sS'size'
p1746
g2
((lp1747
S'integer'
p1748
aS'num'
p1749
aS'fixnum'
p1750
aS'int, float::infinity'
p1751
atp1752
Rp1753
sS'enclosed?'
p1754
g2
((lp1755
S'true'
p1756
atp1757
Rp1758
sS'to_io'
p1759
g2
((lp1760
S'ios'
p1761
aS'io'
p1762
atp1763
Rp1764
sS'peek_values'
p1765
g2
((lp1766
S'array'
p1767
atp1768
Rp1769
sS'mkdir'
p1770
g2
((lp1771
S'0'
p1772
atp1773
Rp1774
sS'system'
p1775
g2
((lp1776
S'true, false'
p1777
atp1778
Rp1779
sS'to_int'
p1780
g2
((lp1781
S'integer'
p1782
atp1783
Rp1784
sS'priority'
p1785
g2
((lp1786
S'integer'
p1787
atp1788
Rp1789
sS'sym[idx]'
p1790
g2
((lp1791
S'char'
p1792
atp1793
Rp1794
sS'prng1'
p1795
g2
((lp1796
S'true'
p1797
atp1798
Rp1799
sS'private_class_method'
p1800
g2
((lp1801
S'mod'
p1802
atp1803
Rp1804
sS'bit_length'
p1805
g2
((lp1806
S'integer'
p1807
atp1808
Rp1809
sS'casefold?'
p1810
g2
((lp1811
S'true'
p1812
atp1813
Rp1814
sS'store'
p1815
g2
((lp1816
S'value'
p1817
atp1818
Rp1819
sS'rmdir'
p1820
g2
((lp1821
S'0'
p1822
atp1823
Rp1824
sS'+num'
p1825
g2
((lp1826
S'num'
p1827
atp1828
Rp1829
sS'getlocal'
p1830
g2
((lp1831
tp1832
Rp1833
sS'stress'
p1834
g2
((lp1835
S'fixnum, true'
p1836
aS'bool'
p1837
atp1838
Rp1839
sS'socket?'
p1840
g2
((lp1841
S'true'
p1842
atp1843
Rp1844
sS'executable_real?'
p1845
g2
((lp1846
S'true'
p1847
atp1848
Rp1849
sS'abort_on_exception='
p1850
g2
((lp1851
S'true'
p1852
atp1853
Rp1854
sS'byteslice'
p1855
g2
((lp1856
tp1857
Rp1858
sS'daemon'
p1859
g2
((lp1860
S'0'
p1861
atp1862
Rp1863
sS'b'
p1864
g2
((lp1865
tp1866
Rp1867
sS'grep'
p1868
g2
((lp1869
S'array'
p1870
atp1871
Rp1872
sS'count_objects'
p1873
g2
((lp1874
S'hash'
p1875
atp1876
Rp1877
sS'require'
p1878
g2
((lp1879
S'true'
p1880
atp1881
Rp1882
sS'rationalize'
p1883
g2
((lp1884
S'(0/1)'
p1885
aS'self'
p1886
aS'rational'
p1887
atp1888
Rp1889
sS'`cmd`'
p1890
g2
((lp1891
S'string'
p1892
atp1893
Rp1894
sS'__callee__'
p1895
g2
((lp1896
S'symbol'
p1897
atp1898
Rp1899
sS'protected'
p1900
g2
((lp1901
S'self'
p1902
atp1903
Rp1904
sS'method_missing'
p1905
g2
((lp1906
S'result'
p1907
atp1908
Rp1909
sS'reject!'
p1910
g2
((lp1911
S'enumerator'
p1912
atp1913
Rp1914
sS'zero?'
p1915
g2
((lp1916
S'true'
p1917
atp1918
Rp1919
sS'prepended'
p1920
g2
((lp1921
S'private'
p1922
atp1923
Rp1924
sS'readpartial'
p1925
g2
((lp1926
S'string'
p1927
aS'outbuf'
p1928
atp1929
Rp1930
sS'result'
p1931
g2
((lp1932
S'value'
p1933
atp1934
Rp1935
sS'nonzero?'
p1936
g2
((lp1937
S'self'
p1938
atp1939
Rp1940
sS'false'
p1941
g2
((lp1942
S'true'
p1943
aS'&'
p1944
atp1945
Rp1946
sS'protected_instance_methods'
p1947
g2
((lp1948
S'array'
p1949
atp1950
Rp1951
sS'getrlimit'
p1952
g2
((lp1953
S'[cur_limit, max_limit]'
p1954
atp1955
Rp1956
sS'chmod'
p1957
g2
((lp1958
S'integer'
p1959
aS'0'
p1960
atp1961
Rp1962
sS'seed'
p1963
g2
((lp1964
S'integer'
p1965
atp1966
Rp1967
sS'waitpid2'
p1968
g2
((lp1969
S'[pid, status]'
p1970
atp1971
Rp1972
sS'conjugate'
p1973
g2
((lp1974
S'self'
p1975
atp1976
Rp1977
sS'seek'
p1978
g2
((lp1979
S'0'
p1980
atp1981
Rp1982
sS'angle'
p1983
g2
((lp1984
S'0'
p1985
aS'float'
p1986
atp1987
Rp1988
sS'tv_sec'
p1989
g2
((lp1990
g327
atp1991
Rp1992
sS'min'
p1993
g2
((lp1994
g4
aS'fixnum'
p1995
atp1996
Rp1997
sS'inplace_mode'
p1998
g2
((lp1999
S'string'
p2000
atp2001
Rp2002
sS'object_id'
p2003
g2
((lp2004
S'integer'
p2005
atp2006
Rp2007
sS'take'
p2008
g2
((lp2009
S'array'
p2010
atp2011
Rp2012
sS'singleton_method'
p2013
g2
((lp2014
S'method'
p2015
atp2016
Rp2017
sS'='
p2018
g2
((lp2019
S'true'
p2020
aS'true, false,'
p2021
atp2022
Rp2023
sS'garbage_collect'
p2024
g2
((lp2025
S'nil'
p2026
atp2027
Rp2028
sS'tr_s!'
p2029
g2
((lp2030
tp2031
Rp2032
sS'realpath'
p2033
g2
((lp2034
S'real_pathname'
p2035
atp2036
Rp2037
sS'begin'
p2038
g2
((lp2039
S'integer'
p2040
ag4
atp2041
Rp2042
sS'trace'
p2043
g2
((lp2044
g4
atp2045
Rp2046
sS'exec'
p2047
g2
((lp2048
S'exit(status=true)'
p2049
atp2050
Rp2051
sS'autoclose?'
p2052
g2
((lp2053
S'true'
p2054
atp2055
Rp2056
sS'take_while'
p2057
g2
((lp2058
S'array'
p2059
aS'enumerator'
p2060
atp2061
Rp2062
sS'glob'
p2063
g2
((lp2064
S'matches'
p2065
aS'nil'
p2066
atp2067
Rp2068
sS'denominator'
p2069
g2
((lp2070
S'1'
p2071
aS'integer'
p2072
atp2073
Rp2074
sS'assoc'
p2075
g2
((lp2076
S'array'
p2077
atp2078
Rp2079
sS'phase'
p2080
g2
((lp2081
S'0'
p2082
aS'float'
p2083
atp2084
Rp2085
sS'class'
p2086
g2
((lp2087
S'class'
p2088
atp2089
Rp2090
sS'exc'
p2091
g2
((lp2092
S'true'
p2093
atp2094
Rp2095
sS'year'
p2096
g2
((lp2097
S'fixnum'
p2098
atp2099
Rp2100
sS'clear'
p2101
g2
((lp2102
tp2103
Rp2104
sS'directory?'
p2105
g2
((lp2106
S'true'
p2107
atp2108
Rp2109
sS'find_index'
p2110
g2
((lp2111
g327
aS'enumerator'
p2112
atp2113
Rp2114
sS'pipe'
p2115
g2
((lp2116
S'popen([env,] cmd, mode="r" [, opt])'
p2117
aS'[read_io, write_io]'
p2118
atp2119
Rp2120
sS'public_class_method'
p2121
g2
((lp2122
S'mod'
p2123
atp2124
Rp2125
sS'singleton_methods'
p2126
g2
((lp2127
S'array'
p2128
atp2129
Rp2130
sS'real?'
p2131
g2
((lp2132
S'true'
p2133
aS'false'
p2134
atp2135
Rp2136
sS'downcase!'
p2137
g2
((lp2138
tp2139
Rp2140
sS'sum'
p2141
g2
((lp2142
S'integer'
p2143
atp2144
Rp2145
sS'writable?'
p2146
g2
((lp2147
S'true'
p2148
atp2149
Rp2150
sS'dst?'
p2151
g2
((lp2152
S'true'
p2153
atp2154
Rp2155
sS'collect_concat'
p2156
g2
((lp2157
S'array'
p2158
aS'enumerator'
p2159
atp2160
Rp2161
sS'restore'
p2162
g2
((lp2163
g4
atp2164
Rp2165
sS'each_with_index'
p2166
g2
((lp2167
S'each_with_index'
p2168
aS'enum'
p2169
aS'enumerator'
p2170
atp2171
Rp2172
sS'binmode?'
p2173
g2
((lp2174
S'true'
p2175
atp2176
Rp2177
sS'binwrite'
p2178
g2
((lp2179
S'binwrite(name, string, [offset], open_args )   => fixnum'
p2180
atp2181
Rp2182
sS'writable_real?'
p2183
g2
((lp2184
S'true'
p2185
atp2186
Rp2187
sS'find'
p2188
g2
((lp2189
g4
aS'enumerator'
p2190
atp2191
Rp2192
sS'flatten!'
p2193
g2
((lp2194
tp2195
Rp2196
sS'[,'
p2197
g2
((lp2198
S'[, timeout]]])'
p2199
atp2200
Rp2201
sS'parameters'
p2202
g2
((lp2203
S'array'
p2204
atp2205
Rp2206
sS'downto'
p2207
g2
((lp2208
S'self'
p2209
aS'enumerator'
p2210
atp2211
Rp2212
sS'alias_method'
p2213
g2
((lp2214
S'self'
p2215
atp2216
Rp2217
sS'private_methods'
p2218
g2
((lp2219
S'array'
p2220
atp2221
Rp2222
sS'uid='
p2223
g2
((lp2224
S'numeric'
p2225
atp2226
Rp2227
sS'delete_if'
p2228
g2
((lp2229
S'hash'
p2230
aS'enumerator'
p2231
atp2232
Rp2233
sS'maxgroups='
p2234
g2
((lp2235
S'fixnum'
p2236
atp2237
Rp2238
sS'inherited'
p2239
g2
((lp2240
g4
atp2241
Rp2242
sS'pre_match'
p2243
g2
((lp2244
g790
atp2245
Rp2246
sS'thread_variable_set'
p2247
g2
((lp2248
S'thread_variables'
p2249
atp2250
Rp2251
sS'local'
p2252
g2
((lp2253
tp2254
Rp2255
sS'fnmatch?'
p2256
g2
((lp2257
S'(true'
p2258
atp2259
Rp2260
sS'~big'
p2261
g2
((lp2262
S'integer'
p2263
atp2264
Rp2265
sS'rstrip!'
p2266
g2
((lp2267
S'self'
p2268
atp2269
Rp2270
sS'enum_for'
p2271
g2
((lp2272
S'enum'
p2273
atp2274
Rp2275
sS'empty?'
p2276
g2
((lp2277
S'true'
p2278
atp2279
Rp2280
sS'=>'
p2281
g2
((lp2282
S'0'
p2283
aS'-1, 0, +1,'
p2284
aS'-1, 0, +1'
p2285
atp2286
Rp2287
sS'stop'
p2288
g2
((lp2289
S'nil'
p2290
atp2291
Rp2292
sS'ceil'
p2293
g2
((lp2294
S'integer'
p2295
atp2296
Rp2297
sS'tuesday?'
p2298
g2
((lp2299
S'true'
p2300
atp2301
Rp2302
sS'remove_class_variable'
p2303
g2
((lp2304
g4
atp2305
Rp2306
sS'getpgrp'
p2307
g2
((lp2308
S'integer'
p2309
atp2310
Rp2311
sS'alive?'
p2312
g2
((lp2313
S'true'
p2314
atp2315
Rp2316
sS'readable?'
p2317
g2
((lp2318
S'true'
p2319
atp2320
Rp2321
sS'attr'
p2322
g2
((lp2323
S'nil'
p2324
atp2325
Rp2326
sS'fileno'
p2327
g2
((lp2328
S'fixnum'
p2329
atp2330
Rp2331
sS'next!'
p2332
g2
((lp2333
tp2334
Rp2335
sS'sym[b,'
p2336
g2
((lp2337
S'string'
p2338
atp2339
Rp2340
sS'process::sys.geteuid'
p2341
g2
((lp2342
S'fixnum'
p2343
atp2344
Rp2345
sS'bytes'
p2346
g2
((lp2347
S'array'
p2348
aS'enumerator'
p2349
aS'string'
p2350
atp2351
Rp2352
sS'yield'
p2353
g2
((lp2354
g4
atp2355
Rp2356
sS'method'
p2357
g2
((lp2358
S'method'
p2359
atp2360
Rp2361
sS'allocate'
p2362
g2
((lp2363
g4
atp2364
Rp2365
sS'egid'
p2366
g2
((lp2367
S'fixnum'
p2368
atp2369
Rp2370
sS'singleton_class?'
p2371
g2
((lp2372
S'true'
p2373
atp2374
Rp2375
sS'merge!'
p2376
g2
((lp2377
tp2378
Rp2379
sS'tr_s'
p2380
g2
((lp2381
tp2382
Rp2383
sS'method_defined?'
p2384
g2
((lp2385
S'true'
p2386
atp2387
Rp2388
sS'modulo'
p2389
g2
((lp2390
S'real'
p2391
aS'numeric'
p2392
atp2393
Rp2394
sS'dump'
p2395
g2
((lp2396
S'io'
p2397
atp2398
Rp2399
sS'backtrace'
p2400
g2
((lp2401
S'array'
p2402
atp2403
Rp2404
sS'module'
p2405
g2
((lp2406
S'<'
p2407
atp2408
Rp2409
sS'freeze'
p2410
g2
((lp2411
S'mod'
p2412
atp2413
Rp2414
sS'sec'
p2415
g2
((lp2416
S'fixnum'
p2417
atp2418
Rp2419
sS'dummy?'
p2420
g2
((lp2421
S'true'
p2422
atp2423
Rp2424
sS'arg'
p2425
g2
((lp2426
S'0'
p2427
aS'float'
p2428
atp2429
Rp2430
sS'fail'
p2431
g2
((lp2432
S'fail(exception [, string [, array]])'
p2433
atp2434
Rp2435
sS'close'
p2436
g2
((lp2437
S'nil'
p2438
atp2439
Rp2440
sS'flat_map'
p2441
g2
((lp2442
S'array'
p2443
aS'enumerator'
p2444
atp2445
Rp2446
sS'waitall'
p2447
g2
((lp2448
S'[ [pid1,status1], ...]'
p2449
atp2450
Rp2451
sS'each_slice'
p2452
g2
((lp2453
S'enumerator'
p2454
aS'nil'
p2455
atp2456
Rp2457
sS'detect'
p2458
g2
((lp2459
g4
aS'enumerator'
p2460
atp2461
Rp2462
sS'latest_gc_info'
p2463
g2
((lp2464
S':malloc'
p2465
aS'{:gc_by=>:newobj}'
p2466
aS'hash'
p2467
atp2468
Rp2469
sS'attr_reader'
p2470
g2
((lp2471
S'nil'
p2472
atp2473
Rp2474
sS'filename'
p2475
g2
((lp2476
S'string'
p2477
atp2478
Rp2479
sS'fdiv'
p2480
g2
((lp2481
S'float'
p2482
atp2483
Rp2484
sS'nil?'
p2485
g2
((lp2486
S'true'
p2487
atp2488
Rp2489
sS'at_exit'
p2490
g2
((lp2491
S'proc'
p2492
atp2493
Rp2494
sS'autoclose'
p2495
g2
((lp2496
S'true'
p2497
atp2498
Rp2499
sS'fcntl'
p2500
g2
((lp2501
S'integer'
p2502
atp2503
Rp2504
sS'lazy'
p2505
g2
((lp2506
S'lazy_enumerator'
p2507
atp2508
Rp2509
sS'bytesize'
p2510
g2
((lp2511
S'integer'
p2512
atp2513
Rp2514
sS'extend'
p2515
g2
((lp2516
tp2517
Rp2518
sS'lstat'
p2519
g2
((lp2520
S'stat'
p2521
atp2522
Rp2523
sS'exist?'
p2524
g2
((lp2525
S'true'
p2526
atp2527
Rp2528
sS'collect!'
p2529
g2
((lp2530
S'enumerator'
p2531
atp2532
Rp2533
sS'transpose'
p2534
g2
((lp2535
tp2536
Rp2537
sS'nsec'
p2538
g2
((lp2539
g327
atp2540
Rp2541
sS'ungetc'
p2542
g2
((lp2543
S'nil'
p2544
atp2545
Rp2546
sS'key'
p2547
g2
((lp2548
S'name'
p2549
aS'key'
p2550
atp2551
Rp2552
sS'sunday?'
p2553
g2
((lp2554
S'true'
p2555
atp2556
Rp2557
sS'to_sym'
p2558
g2
((lp2559
S'symbol'
p2560
aS'sym'
p2561
atp2562
Rp2563
sS'cos'
p2564
g2
((lp2565
S'float'
p2566
atp2567
Rp2568
sS'last'
p2569
g2
((lp2570
S'array'
p2571
ag4
atp2572
Rp2573
sS'reverse'
p2574
g2
((lp2575
tp2576
Rp2577
sS'instance_methods'
p2578
g2
((lp2579
S'array'
p2580
atp2581
Rp2582
sS'sort!'
p2583
g2
((lp2584
tp2585
Rp2586
sS'protected_method_defined?'
p2587
g2
((lp2588
S'true'
p2589
atp2590
Rp2591
sS'initgroups'
p2592
g2
((lp2593
S'array'
p2594
atp2595
Rp2596
sS'readbyte'
p2597
g2
((lp2598
S'fixnum'
p2599
atp2600
Rp2601
sS'ary[start,'
p2602
g2
((lp2603
g4
atp2604
Rp2605
sS'receiver'
p2606
g2
((lp2607
S'object'
p2608
atp2609
Rp2610
sS'big[n]'
p2611
g2
((lp2612
S'0, 1'
p2613
atp2614
Rp2615
sS'delete'
p2616
g2
((lp2617
S'item'
p2618
aS'integer'
p2619
aS'value'
p2620
aS'0'
p2621
atp2622
Rp2623
sS'arity'
p2624
g2
((lp2625
S'fixnum'
p2626
atp2627
Rp2628
sS'strftime'
p2629
g2
((lp2630
S'string'
p2631
atp2632
Rp2633
sS'gcdlcm'
p2634
g2
((lp2635
S'array'
p2636
atp2637
Rp2638
sS'each_byte'
p2639
g2
((lp2640
S'ios'
p2641
aS'enumerator'
p2642
atp2643
Rp2644
sS'struct[member]'
p2645
g2
((lp2646
S'object'
p2647
atp2648
Rp2649
sS'process::uid.rid'
p2650
g2
((lp2651
S'fixnum'
p2652
atp2653
Rp2654
sS'instance_variables'
p2655
g2
((lp2656
S'array'
p2657
atp2658
Rp2659
sS'eof?'
p2660
g2
((lp2661
S'true'
p2662
atp2663
Rp2664
sS'format'
p2665
g2
((lp2666
S'string'
p2667
atp2668
Rp2669
sS'pos'
p2670
g2
((lp2671
S'integer'
p2672
atp2673
Rp2674
sS'grpowned?'
p2675
g2
((lp2676
S'true'
p2677
atp2678
Rp2679
sS'set_backtrace'
p2680
g2
((lp2681
S'array'
p2682
atp2683
Rp2684
sS'each_codepoint'
p2685
g2
((lp2686
S'ios'
p2687
aS'enumerator'
p2688
atp2689
Rp2690
sS'__method__'
p2691
g2
((lp2692
S'symbol'
p2693
atp2694
Rp2695
sS'yday'
p2696
g2
((lp2697
S'fixnum'
p2698
atp2699
Rp2700
sS'trust'
p2701
g2
((lp2702
tp2703
Rp2704
sS'module_eval'
p2705
g2
((lp2706
g4
atp2707
Rp2708
sS'rjust'
p2709
g2
((lp2710
tp2711
Rp2712
sS'raise'
p2713
g2
((lp2714
S'raise(exception [, string [, array]])'
p2715
atp2716
Rp2717
sS'puts'
p2718
g2
((lp2719
S'nil'
p2720
atp2721
Rp2722
sS'union'
p2723
g2
((lp2724
tp2725
Rp2726
sS'invert'
p2727
g2
((lp2728
S'hash'
p2729
atp2730
Rp2731
sS'close_read'
p2732
g2
((lp2733
S'nil'
p2734
atp2735
Rp2736
sS'replicate'
p2737
g2
((lp2738
tp2739
Rp2740
sS'putc'
p2741
g2
((lp2742
g327
ag4
atp2743
Rp2744
sS'-cmp'
p2745
g2
((lp2746
tp2747
Rp2748
sS'dup'
p2749
g2
((lp2750
tp2751
Rp2752
sS'kernel::exit'
p2753
g2
((lp2754
S'process::exit(status=true)'
p2755
atp2756
Rp2757
sS'squeeze!'
p2758
g2
((lp2759
tp2760
Rp2761
sS'asinh'
p2762
g2
((lp2763
S'float'
p2764
atp2765
Rp2766
sS'instance_eval'
p2767
g2
((lp2768
g4
atp2769
Rp2770
sS'mktime'
p2771
g2
((lp2772
tp2773
Rp2774
sS'infinite?'
p2775
g2
((lp2776
S'nil, -1, +1'
p2777
atp2778
Rp2779
sS'pid'
p2780
g2
((lp2781
S'fixnum'
p2782
atp2783
Rp2784
sS'imag'
p2785
g2
((lp2786
S'real'
p2787
aS'0'
p2788
atp2789
Rp2790
sS'executable?'
p2791
g2
((lp2792
S'true'
p2793
atp2794
Rp2795
sS'exclude_end?'
p2796
g2
((lp2797
S'true'
p2798
atp2799
Rp2800
sS'success?'
p2801
g2
((lp2802
S'true'
p2803
atp2804
Rp2805
sS'catch'
p2806
g2
((lp2807
g4
atp2808
Rp2809
sS'each_key'
p2810
g2
((lp2811
S'enumerator'
p2812
aS'hash'
p2813
atp2814
Rp2815
sS'repeated_permutation'
p2816
g2
((lp2817
S'enumerator'
p2818
atp2819
Rp2820
sS'exception'
p2821
g2
((lp2822
tp2823
Rp2824
sS'public_send'
p2825
g2
((lp2826
tp2827
Rp2828
sS'tanh'
p2829
g2
((lp2830
S'float'
p2831
atp2832
Rp2833
sS'rat'
p2834
g2
((lp2835
S'true'
p2836
aS'numeric'
p2837
atp2838
Rp2839
sS'value'
p2840
g2
((lp2841
g4
atp2842
Rp2843
sS'sort_by'
p2844
g2
((lp2845
S'array'
p2846
aS'enumerator'
p2847
atp2848
Rp2849
sS'compile'
p2850
g2
((lp2851
tp2852
Rp2853
sS'lgamma'
p2854
g2
((lp2855
S'[float, -1'
p2856
atp2857
Rp2858
sS'match'
p2859
g2
((lp2860
S'matchdata'
p2861
aS'fixnum'
p2862
atp2863
Rp2864
sS'mtch[name]'
p2865
g2
((lp2866
g790
atp2867
Rp2868
sS'loop'
p2869
g2
((lp2870
S'loop'
p2871
atp2872
Rp2873
sS'pack'
p2874
g2
((lp2875
S'binarystring'
p2876
atp2877
Rp2878
sS'rename'
p2879
g2
((lp2880
S'0'
p2881
atp2882
Rp2883
sS'untaint'
p2884
g2
((lp2885
tp2886
Rp2887
sS'-num'
p2888
g2
((lp2889
tp2890
Rp2891
sS'key?'
p2892
g2
((lp2893
S'true'
p2894
atp2895
Rp2896
sS'thr[sym]'
p2897
g2
((lp2898
g4
atp2899
Rp2900
sS'srand'
p2901
g2
((lp2902
S'old_seed'
p2903
atp2904
Rp2905
sS'to_path'
p2906
g2
((lp2907
S'string'
p2908
aS'filename'
p2909
atp2910
Rp2911
sS'min_by'
p2912
g2
((lp2913
g4
aS'enumerator'
p2914
atp2915
Rp2916
sS'getwd'
p2917
g2
((lp2918
S'string'
p2919
atp2920
Rp2921
sS'singleton_class'
p2922
g2
((lp2923
S'class'
p2924
atp2925
Rp2926
sS'each_index'
p2927
g2
((lp2928
S'enumerator'
p2929
atp2930
Rp2931
sS'conj'
p2932
g2
((lp2933
S'self'
p2934
atp2935
Rp2936
sS'chomp!'
p2937
g2
((lp2938
tp2939
Rp2940
sS'priority='
p2941
g2
((lp2942
S'thr'
p2943
atp2944
Rp2945
sS'getc'
p2946
g2
((lp2947
S'string'
p2948
atp2949
Rp2950
sS'sqrt'
p2951
g2
((lp2952
S'float'
p2953
atp2954
Rp2955
sS'tr'
p2956
g2
((lp2957
S'tr!(from_str, to_str)'
p2958
atp2959
Rp2960
sS'source_location'
p2961
g2
((lp2962
S'[string, fixnum]'
p2963
atp2964
Rp2965
sS'complex'
p2966
g2
((lp2967
S'numeric'
p2968
atp2969
Rp2970
sS'split'
p2971
g2
((lp2972
S'array'
p2973
atp2974
Rp2975
sS'big'
p2976
g2
((lp2977
S'integer'
p2978
aS'true'
p2979
aS'<'
p2980
aS'numeric'
p2981
aS'&'
p2982
atp2983
Rp2984
sS'exists?'
p2985
g2
((lp2986
S'true'
p2987
atp2988
Rp2989
sS'initialize_copy'
p2990
g2
((lp2991
tp2992
Rp2993
sS'advise'
p2994
g2
((lp2995
S'nil'
p2996
atp2997
Rp2998
sS'gets'
p2999
g2
((lp3000
S'string'
p3001
atp3002
Rp3003
sS'waitpid'
p3004
g2
((lp3005
S'fixnum'
p3006
atp3007
Rp3008
sS'upcase!'
p3009
g2
((lp3010
tp3011
Rp3012
sS'class_variable_set'
p3013
g2
((lp3014
g4
atp3015
Rp3016
sS'extended'
p3017
g2
((lp3018
S'included(othermod)'
p3019
atp3020
Rp3021
sS'thursday?'
p3022
g2
((lp3023
S'true'
p3024
atp3025
Rp3026
sS'nil'
p3027
g2
((lp3028
S'true'
p3029
aS'&'
p3030
atp3031
Rp3032
sS'keys'
p3033
g2
((lp3034
S'array'
p3035
atp3036
Rp3037
sS'ios'
p3038
g2
((lp3039
S'<'
p3040
atp3041
Rp3042
sS'struct'
p3043
g2
((lp3044
S'true'
p3045
atp3046
Rp3047
sS'sym'
p3048
g2
((lp3049
S'true'
p3050
aS'fixnum'
p3051
atp3052
Rp3053
sS'protected_methods'
p3054
g2
((lp3055
S'array'
p3056
atp3057
Rp3058
sS'pending_interrupt?'
p3059
g2
((lp3060
S'true/false'
p3061
atp3062
Rp3063
sS'find_all'
p3064
g2
((lp3065
S'array'
p3066
aS'enumerator'
p3067
atp3068
Rp3069
sS'system_call_error'
p3070
g2
((lp3071
S'true'
p3072
atp3073
Rp3074
sS'sysread'
p3075
g2
((lp3076
S'string'
p3077
atp3078
Rp3079
sS'__dir__'
p3080
g2
((lp3081
S'string'
p3082
atp3083
Rp3084
sS'cycle'
p3085
g2
((lp3086
S'enumerator'
p3087
aS'nil'
p3088
atp3089
Rp3090
sS'add_trace_func'
p3091
g2
((lp3092
S'proc'
p3093
atp3094
Rp3095
sS'partition'
p3096
g2
((lp3097
S'[ true_array, false_array ]'
p3098
aS'[head, match, tail]'
p3099
aS'[head, sep, tail]'
p3100
aS'enumerator'
p3101
atp3102
Rp3103
sS'center'
p3104
g2
((lp3105
tp3106
Rp3107
sS'untrace_var'
p3108
g2
((lp3109
S'array'
p3110
atp3111
Rp3112
sS'i'
p3113
g2
((lp3114
S'complex(0,num)'
p3115
atp3116
Rp3117
sS'taint'
p3118
g2
((lp3119
tp3120
Rp3121
sS'mtch[start,'
p3122
g2
((lp3123
S'array'
p3124
atp3125
Rp3126
sS'str[other_str]'
p3127
g2
((lp3128
S'ascii_only?'
p3129
atp3130
Rp3131
sS'euid'
p3132
g2
((lp3133
S'fixnum'
p3134
atp3135
Rp3136
sS'load'
p3137
g2
((lp3138
g4
aS'true'
p3139
atp3140
Rp3141
sS'rehash'
p3142
g2
((lp3143
tp3144
Rp3145
sS'const_defined?'
p3146
g2
((lp3147
S'true'
p3148
atp3149
Rp3150
sS'captures'
p3151
g2
((lp3152
S'array'
p3153
atp3154
Rp3155
sS'delete_at'
p3156
g2
((lp3157
g4
atp3158
Rp3159
sS'~fix'
p3160
g2
((lp3161
S'integer'
p3162
atp3163
Rp3164
sS'close_on_exec'
p3165
g2
((lp3166
S'true'
p3167
atp3168
Rp3169
sS'_id2ref'
p3170
g2
((lp3171
S'object'
p3172
atp3173
Rp3174
sS'kill'
p3175
g2
((lp3176
S'fixnum'
p3177
aS'thr'
p3178
atp3179
Rp3180
sS'using'
p3181
g2
((lp3182
S'self'
p3183
atp3184
Rp3185
sS'is_a?'
p3186
g2
((lp3187
S'true'
p3188
atp3189
Rp3190
sS'define_method'
p3191
g2
((lp3192
S'symbol'
p3193
atp3194
Rp3195
sS'clock_getres'
p3196
g2
((lp3197
S'number'
p3198
atp3199
Rp3200
sS'public_method'
p3201
g2
((lp3202
S'method'
p3203
atp3204
Rp3205
sS'append_features'
p3206
g2
((lp3207
S'mod'
p3208
atp3209
Rp3210
sS'process::uid.eid'
p3211
g2
((lp3212
S'fixnum'
p3213
atp3214
Rp3215
sS'isdst'
p3216
g2
((lp3217
S'true'
p3218
atp3219
Rp3220
sS'binread'
p3221
g2
((lp3222
S'string'
p3223
atp3224
Rp3225
sS'abs2'
p3226
g2
((lp3227
S'real'
p3228
atp3229
Rp3230
sS'syswrite'
p3231
g2
((lp3232
S'integer'
p3233
atp3234
Rp3235
sS'class_variables'
p3236
g2
((lp3237
S'array'
p3238
atp3239
Rp3240
sS'setuid?'
p3241
g2
((lp3242
S'true'
p3243
atp3244
Rp3245
sS'size?'
p3246
g2
((lp3247
S'integer'
p3248
atp3249
Rp3250
sS'kernel::abort'
p3251
g2
((lp3252
S'process::abort([msg])'
p3253
atp3254
Rp3255
sS'source'
p3256
g2
((lp3257
g790
atp3258
Rp3259
sS'add'
p3260
g2
((lp3261
S'thgrp'
p3262
atp3263
Rp3264
sS'group_by'
p3265
g2
((lp3266
S'enumerator'
p3267
aS'hash'
p3268
atp3269
Rp3270
sS'lchown'
p3271
g2
((lp3272
S'integer'
p3273
atp3274
Rp3275
sS'lstrip!'
p3276
g2
((lp3277
S'self'
p3278
atp3279
Rp3280
sS'readchar'
p3281
g2
((lp3282
S'string'
p3283
atp3284
Rp3285
sS'mod'
p3286
g2
((lp3287
S'true'
p3288
aS'<'
p3289
aS'true, false,'
p3290
atp3291
Rp3292
sS'attr_writer'
p3293
g2
((lp3294
S'nil'
p3295
atp3296
Rp3297
sS'local_variable_defined?'
p3298
g2
((lp3299
g4
atp3300
Rp3301
sS'real'
p3302
g2
((lp3303
S'real'
p3304
aS'self'
p3305
atp3306
Rp3307
sS'utc_offset'
p3308
g2
((lp3309
S'fixnum'
p3310
atp3311
Rp3312
sS'euid='
p3313
g2
((lp3314
S'exec([env,] command... [,options])'
p3315
atp3316
Rp3317
sS'insert'
p3318
g2
((lp3319
tp3320
Rp3321
sS'read'
p3322
g2
((lp3323
S'string, outbuf,'
p3324
aS'string'
p3325
atp3326
Rp3327
sS'rotate!'
p3328
g2
((lp3329
tp3330
Rp3331
sS'groups='
p3332
g2
((lp3333
S'array'
p3334
atp3335
Rp3336
sS'next_values'
p3337
g2
((lp3338
S'array'
p3339
atp3340
Rp3341
sS'rng'
p3342
g2
((lp3343
S'true'
p3344
atp3345
Rp3346
sS'prc[params,...]'
p3347
g2
((lp3348
g4
atp3349
Rp3350
sS'terminate'
p3351
g2
((lp3352
S'thr'
p3353
atp3354
Rp3355
sS'drop_while'
p3356
g2
((lp3357
S'array'
p3358
aS'enumerator'
p3359
atp3360
Rp3361
sS'pop'
p3362
g2
((lp3363
g4
aS'deq(non_block=false)'
p3364
atp3365
Rp3366
sS'integer'
p3367
g2
((lp3368
S'integer'
p3369
atp3370
Rp3371
sS'lcm'
p3372
g2
((lp3373
tp3374
Rp3375
sS'public_methods'
p3376
g2
((lp3377
S'array'
p3378
atp3379
Rp3380
sS'compare_by_identity?'
p3381
g2
((lp3382
S'true'
p3383
atp3384
Rp3385
sS'any?'
p3386
g2
((lp3387
S'true'
p3388
atp3389
Rp3390
sS'post_match'
p3391
g2
((lp3392
g790
atp3393
Rp3394
sS'rotate'
p3395
g2
((lp3396
tp3397
Rp3398
sS'ctime'
p3399
g2
((lp3400
S'string'
p3401
aS'time'
p3402
atp3403
Rp3404
sS'fsync'
p3405
g2
((lp3406
S'0'
p3407
atp3408
Rp3409
sS'collect'
p3410
g2
((lp3411
S'array'
p3412
aS'enumerator'
p3413
atp3414
Rp3415
sS'lambda?'
p3416
g2
((lp3417
S'true'
p3418
atp3419
Rp3420
sS'names'
p3421
g2
((lp3422
S'[name1, name2, ...]'
p3423
aS'array'
p3424
atp3425
Rp3426
sS'methods'
p3427
g2
((lp3428
S'array'
p3429
atp3430
Rp3431
sS'swapcase'
p3432
g2
((lp3433
tp3434
Rp3435
sS'undefine_finalizer'
p3436
g2
((lp3437
S'new {|...| block }'
p3438
atp3439
Rp3440
sS'cover?'
p3441
g2
((lp3442
S'true'
p3443
atp3444
Rp3445
sS'intern'
p3446
g2
((lp3447
S'symbol'
p3448
aS'sym'
p3449
atp3450
Rp3451
sS'hypot'
p3452
g2
((lp3453
S'float'
p3454
atp3455
Rp3456
sS'each_entry'
p3457
g2
((lp3458
S'enum'
p3459
aS'enumerator'
p3460
atp3461
Rp3462
sS'flatten'
p3463
g2
((lp3464
S'array'
p3465
atp3466
Rp3467
sS'to_enum'
p3468
g2
((lp3469
S'enum'
p3470
atp3471
Rp3472
sS'flush'
p3473
g2
((lp3474
S'ios'
p3475
atp3476
Rp3477
sS'home'
p3478
g2
((lp3479
S'/root'
p3480
aS'/home/me'
p3481
atp3482
Rp3483
sS'fixed_encoding?'
p3484
g2
((lp3485
S'true'
p3486
atp3487
Rp3488
sS'slice_before'
p3489
g2
((lp3490
S'enumerator'
p3491
atp3492
Rp3493
sS'-fix'
p3494
g2
((lp3495
S'integer'
p3496
atp3497
Rp3498
sS'slice'
p3499
g2
((lp3500
S'char'
p3501
ag4
aS'string'
p3502
atp3503
Rp3504
sS'define_finalizer'
p3505
g2
((lp3506
S'each_object([module]) {|obj| ... }'
p3507
atp3508
Rp3509
sS'setbyte'
p3510
g2
((lp3511
S'integer'
p3512
atp3513
Rp3514
sS'synchronize'
p3515
g2
((lp3516
S'result of the block'
p3517
atp3518
Rp3519
sS'original_name'
p3520
g2
((lp3521
S'symbol'
p3522
atp3523
Rp3524
sS'integer?'
p3525
g2
((lp3526
S'true'
p3527
atp3528
Rp3529
sS'define_singleton_method'
p3530
g2
((lp3531
S'proc'
p3532
aS'method'
p3533
atp3534
Rp3535
sS'exit'
p3536
g2
((lp3537
S'kernel::exit(status=true)'
p3538
aS'thr'
p3539
atp3540
Rp3541
sS'__id__'
p3542
g2
((lp3543
S'integer'
p3544
atp3545
Rp3546
sS'quote'
p3547
g2
((lp3548
S'string'
p3549
atp3550
Rp3551
sS'each_object'
p3552
g2
((lp3553
S'enumerator'
p3554
atp3555
Rp3556
sS'proc'
p3557
g2
((lp3558
S'result_of_proc'
p3559
aS'proc'
p3560
atp3561
Rp3562
sS'chars'
p3563
g2
((lp3564
S'array'
p3565
atp3566
Rp3567
sS'setrlimit'
p3568
g2
((lp3569
S'nil'
p3570
atp3571
Rp3572
sS'meth[args,'
p3573
g2
((lp3574
g4
atp3575
Rp3576
sS'peek'
p3577
g2
((lp3578
S'object'
p3579
atp3580
Rp3581
sg4
g2
((lp3582
S'true'
p3583
aS'<'
p3584
aS'nil'
p3585
atp3586
Rp3587
sS'run'
p3588
g2
((lp3589
S'thr'
p3590
atp3591
Rp3592
sS'saturday?'
p3593
g2
((lp3594
S'true'
p3595
atp3596
Rp3597
sS'inspect'
p3598
g2
((lp3599
S'string'
p3600
aS'nil'
p3601
atp3602
Rp3603
sS'gmtime'
p3604
g2
((lp3605
tp3606
Rp3607
sS'symlink'
p3608
g2
((lp3609
S'0'
p3610
atp3611
Rp3612
sS'update'
p3613
g2
((lp3614
S'hash'
p3615
atp3616
Rp3617
sS'debug'
p3618
g2
((lp3619
S'abort_on_exception'
p3620
aS'num'
p3621
atp3622
Rp3623
sS'step'
p3624
g2
((lp3625
S'rng'
p3626
aS'self'
p3627
aS'enumerator'
p3628
atp3629
Rp3630
sS'offset'
p3631
g2
((lp3632
S'array'
p3633
atp3634
Rp3635
sS'each_with_object'
p3636
g2
((lp3637
S'each_with_object(obj)'
p3638
ag4
aS'enumerator'
p3639
atp3640
Rp3641
sS'regexp'
p3642
g2
((lp3643
S'regexp'
p3644
atp3645
Rp3646
sS'imaginary'
p3647
g2
((lp3648
S'real'
p3649
aS'0'
p3650
atp3651
Rp3652
sS'throw'
p3653
g2
((lp3654
S'trace_var(symbol, cmd )'
p3655
atp3656
Rp3657
sS'write_nonblock'
p3658
g2
((lp3659
S'integer'
p3660
atp3661
Rp3662
sS'to_r'
p3663
g2
((lp3664
S'(0/1)'
p3665
aS'self'
p3666
aS'rational'
p3667
atp3668
Rp3669
sS'to_s'
p3670
g2
((lp3671
S''
p3672
aS'true'
p3673
aS'false'
p3674
aS'string'
p3675
atp3676
Rp3677
sS'meth'
p3678
g2
((lp3679
S'true'
p3680
atp3681
Rp3682
sS'argv0'
p3683
g2
((lp3684
S'frozen_string'
p3685
atp3686
Rp3687
sS'numerator'
p3688
g2
((lp3689
S'integer'
p3690
aS'self'
p3691
aS'numeric'
p3692
atp3693
Rp3694
sS'const_set'
p3695
g2
((lp3696
g4
atp3697
Rp3698
sS'to_f'
p3699
g2
((lp3700
S'0.0'
p3701
aS'self'
p3702
aS'float'
p3703
atp3704
Rp3705
sS'bsearch'
p3706
g2
((lp3707
S'elem'
p3708
aS'value'
p3709
atp3710
Rp3711
sS'to_a'
p3712
g2
((lp3713
S'array'
p3714
aS'[]'
p3715
atp3716
Rp3717
sS'acos'
p3718
g2
((lp3719
S'float'
p3720
atp3721
Rp3722
sS'curry'
p3723
g2
((lp3724
tp3725
Rp3726
sS'to_h'
p3727
g2
((lp3728
S'hash'
p3729
aS'{}'
p3730
atp3731
Rp3732
sS'to_i'
p3733
g2
((lp3734
S'integer'
p3735
aS'fixnum'
p3736
aS'0'
p3737
atp3738
Rp3739
sS'thread_variable?'
p3740
g2
((lp3741
S'true'
p3742
atp3743
Rp3744
sS'safe_level'
p3745
g2
((lp3746
S'integer'
p3747
atp3748
Rp3749
sS'respond_to?'
p3750
g2
((lp3751
S'true'
p3752
atp3753
Rp3754
sS'float'
p3755
g2
((lp3756
S'float'
p3757
aS'true'
p3758
aS'<'
p3759
atp3760
Rp3761
sS'file?'
p3762
g2
((lp3763
S'true'
p3764
atp3765
Rp3766
sS'utc?'
p3767
g2
((lp3768
S'true'
p3769
atp3770
Rp3771
sS'handle_interrupt'
p3772
g2
((lp3773
S'result of the block'
p3774
atp3775
Rp3776
sS'getpgid'
p3777
g2
((lp3778
S'integer'
p3779
atp3780
Rp3781
sS'instance_of?'
p3782
g2
((lp3783
S'true'
p3784
atp3785
Rp3786
sS'strip'
p3787
g2
((lp3788
tp3789
Rp3790
sS'encode!'
p3791
g2
((lp3792
tp3793
Rp3794
sS'gsub!'
p3795
g2
((lp3796
S'enumerator'
p3797
atp3798
Rp3799
sS'log'
p3800
g2
((lp3801
S'float'
p3802
atp3803
Rp3804
sS'succ!'
p3805
g2
((lp3806
tp3807
Rp3808
sS'const_missing'
p3809
g2
((lp3810
g4
atp3811
Rp3812
sS'capitalize!'
p3813
g2
((lp3814
tp3815
Rp3816
sS'transfer'
p3817
g2
((lp3818
g4
atp3819
Rp3820
sS'hex'
p3821
g2
((lp3822
S'integer'
p3823
atp3824
Rp3825
sS'identical?'
p3826
g2
((lp3827
S'true'
p3828
atp3829
Rp3830
sS'start'
p3831
g2
((lp3832
S'nil'
p3833
atp3834
Rp3835
sS'gid'
p3836
g2
((lp3837
S'fixnum'
p3838
atp3839
Rp3840
sS'to_hash'
p3841
g2
((lp3842
S'update(other_hash)'
p3843
aS'hash'
p3844
atp3845
Rp3846
sS'log10'
p3847
g2
((lp3848
S'float'
p3849
atp3850
Rp3851
sS'chunk'
p3852
g2
((lp3853
S'enumerator'
p3854
atp3855
Rp3856
sS'fork'
p3857
g2
((lp3858
S'fixnum'
p3859
atp3860
Rp3861
sS'ungetbyte'
p3862
g2
((lp3863
S'nil'
p3864
atp3865
Rp3866
sS'delete!'
p3867
g2
((lp3868
tp3869
Rp3870
sS'sysseek'
p3871
g2
((lp3872
S'integer'
p3873
atp3874
Rp3875
sS'rassoc'
p3876
g2
((lp3877
S'rehash'
p3878
aS'array'
p3879
atp3880
Rp3881
sS'pwd'
p3882
g2
((lp3883
S'string'
p3884
atp3885
Rp3886
sS'link'
p3887
g2
((lp3888
S'0'
p3889
atp3890
Rp3891
sS'str[regexp,'
p3892
g2
((lp3893
S'str[regexp, name] = new_str'
p3894
atp3895
Rp3896
sS'sub!'
p3897
g2
((lp3898
tp3899
Rp3900
sS'compatible?'
p3901
g2
((lp3902
S'enc'
p3903
atp3904
Rp3905
sS'atime'
p3906
g2
((lp3907
S'time'
p3908
atp3909
Rp3910
sS'true'
p3911
g2
((lp3912
S'true'
p3913
aS'!obj'
p3914
aS'&'
p3915
atp3916
Rp3917
sS'eof'
p3918
g2
((lp3919
S'true'
p3920
atp3921
Rp3922
sS'count'
p3923
g2
((lp3924
g327
aS'fixnum'
p3925
atp3926
Rp3927
sS'utc'
p3928
g2
((lp3929
tp3930
Rp3931
sS'getbyte'
p3932
g2
((lp3933
S'0 .. 255'
p3934
aS'fixnum'
p3935
atp3936
Rp3937
sS'wait2'
p3938
g2
((lp3939
S'[pid, status]'
p3940
atp3941
Rp3942
sS'default'
p3943
g2
((lp3944
g4
atp3945
Rp3946
sS'caller'
p3947
g2
((lp3948
S'array'
p3949
atp3950
Rp3951
sS'extname'
p3952
g2
((lp3953
S'string'
p3954
atp3955
Rp3956
sS'with_index'
p3957
g2
((lp3958
S'with_index(offset = 0)'
p3959
atp3960
Rp3961
sS'keep_if'
p3962
g2
((lp3963
S'hash'
p3964
aS'enumerator'
p3965
atp3966
Rp3967
sS'global_variables'
p3968
g2
((lp3969
S'array'
p3970
atp3971
Rp3972
sS'!obj'
p3973
g2
((lp3974
S'true'
p3975
atp3976
Rp3977
sS'display'
p3978
g2
((lp3979
S'nil'
p3980
atp3981
Rp3982
sS'superclass'
p3983
g2
((lp3984
S'super_class'
p3985
atp3986
Rp3987
sS'remove_instance_variable'
p3988
g2
((lp3989
tp3990
Rp3991
sS'instance_method'
p3992
g2
((lp3993
S'unbound_method'
p3994
atp3995
Rp3996
sS'include?'
p3997
g2
((lp3998
S'true'
p3999
atp4000
Rp4001
sS'uid'
p4002
g2
((lp4003
S'fixnum'
p4004
atp4005
Rp4006
sS'syscall'
p4007
g2
((lp4008
S'integer'
p4009
atp4010
Rp4011
sS'try_lock'
p4012
g2
((lp4013
S'true'
p4014
atp4015
Rp4016
sS'readlines'
p4017
g2
((lp4018
S'array'
p4019
atp4020
Rp4021
sS'enable'
p4022
g2
((lp4023
g4
aS'true'
p4024
atp4025
Rp4026
sS'at'
p4027
g2
((lp4028
g4
atp4029
Rp4030
sS'file'
p4031
g2
((lp4032
S'io'
p4033
atp4034
Rp4035
sS'mtime'
p4036
g2
((lp4037
S'time'
p4038
atp4039
Rp4040
sS'iterator?'
p4041
g2
((lp4042
S'true'
p4043
atp4044
Rp4045
sS'member?'
p4046
g2
((lp4047
S'true'
p4048
atp4049
Rp4050
sS'fill'
p4051
g2
((lp4052
tp4053
Rp4054
sS'remove_const'
p4055
g2
((lp4056
g4
atp4057
Rp4058
sS'ancestors'
p4059
g2
((lp4060
S'array'
p4061
atp4062
Rp4063
sS'undef_method'
p4064
g2
((lp4065
S'self'
p4066
atp4067
Rp4068
sS'odd?'
p4069
g2
((lp4070
S'true'
p4071
atp4072
Rp4073
sS'floor'
p4074
g2
((lp4075
S'integer'
p4076
atp4077
Rp4078
sS'crypt'
p4079
g2
((lp4080
tp4081
Rp4082
sS'frozen?'
p4083
g2
((lp4084
S'true'
p4085
atp4086
Rp4087
sS'prepend'
p4088
g2
((lp4089
S'self'
p4090
atp4091
Rp4092
sS'setpriority'
p4093
g2
((lp4094
S'0'
p4095
atp4096
Rp4097
sS'test'
p4098
g2
((lp4099
g4
atp4100
Rp4101
sS'default_internal'
p4102
g2
((lp4103
S'find(string)'
p4104
atp4105
Rp4106
sS'malloc_allocations'
p4107
g2
((lp4108
S'integer'
p4109
atp4110
Rp4111
sS'polar'
p4112
g2
((lp4113
S'array'
p4114
atp4115
Rp4116
sS'stat'
p4117
g2
((lp4118
S'stat'
p4119
aS'hash'
p4120
aS'numeric'
p4121
atp4122
Rp4123
sS'scrub'
p4124
g2
((lp4125
tp4126
Rp4127
sS'exp'
p4128
g2
((lp4129
S'float'
p4130
atp4131
Rp4132
sS'truncate'
p4133
g2
((lp4134
S'0'
p4135
aS'integer'
p4136
atp4137
Rp4138
sS'process::gid.eid'
p4139
g2
((lp4140
S'fixnum'
p4141
atp4142
Rp4143
sS'name_list'
p4144
g2
((lp4145
S'["enc1", "enc2", ...]'
p4146
atp4147
Rp4148
sS'downcase'
p4149
g2
((lp4150
tp4151
Rp4152
sS'values_at'
p4153
g2
((lp4154
S'array'
p4155
atp4156
Rp4157
sS'readlink'
p4158
g2
((lp4159
S'file_name'
p4160
atp4161
Rp4162
sS'eval'
p4163
g2
((lp4164
g4
atp4165
Rp4166
sS'start_with?'
p4167
g2
((lp4168
S'true'
p4169
atp4170
Rp4171
sS'readline'
p4172
g2
((lp4173
S'string'
p4174
atp4175
Rp4176
sS'concat'
p4177
g2
((lp4178
tp4179
Rp4180
sS'unbind'
p4181
g2
((lp4182
S'unbound_method'
p4183
atp4184
Rp4185
sS'binmode'
p4186
g2
((lp4187
S'ios'
p4188
atp4189
Rp4190
sS'valid_encoding?'
p4191
g2
((lp4192
S'true'
p4193
atp4194
Rp4195
sS'mtch[i]'
p4196
g2
((lp4197
g790
atp4198
Rp4199
sS'swapcase!'
p4200
g2
((lp4201
tp4202
Rp4203
sS'prepend_features'
p4204
g2
((lp4205
S'mod'
p4206
atp4207
Rp4208
sS'gmt_offset'
p4209
g2
((lp4210
S'fixnum'
p4211
atp4212
Rp4213
sS'to_str'
p4214
g2
((lp4215
tp4216
Rp4217
sS'chown'
p4218
g2
((lp4219
S'integer'
p4220
aS'0'
p4221
atp4222
Rp4223
sS'status'
p4224
g2
((lp4225
S'fixnum'
p4226
aS'string, false'
p4227
atp4228
Rp4229
sS'time'
p4230
g2
((lp4231
S'float'
p4232
aS'<'
p4233
atp4234
Rp4235
sS'push'
p4236
g2
((lp4237
tp4238
Rp4239
sS'rxp'
p4240
g2
((lp4241
S'integer'
p4242
aS'true'
p4243
atp4244
Rp4245
sS'instance_exec'
p4246
g2
((lp4247
g4
atp4248
Rp4249
s.